target datalayout = "e-m:e-p270:32:32-p271:32:32-p272:64:64-i64:64-i128:128-f80:128-n8:16:32:64-S128"
target triple = "x86_64-pc-linux-gnu"

%"class.icu_77::GregorianCalendar" = type <{ %"class.icu_77::Calendar", double, i32, [4 x i8], double, i32, i8, i8, [2 x i8] }>
%"class.icu_77::Calendar" = type <{ %"class.icu_77::UObject", [24 x i32], [24 x i8], i8, [7 x i8], double, ptr, i8, i16, i8, i32, i32, i32, i8, i8, i16, [4 x i8], ptr, ptr }>
%"class.icu_77::UObject" = type { ptr }

; Function Attrs: mustprogress uwtable
define void @_ZN6icu_7717GregorianCalendarC2ER10UErrorCode(ptr noundef nonnull align 8 dereferenceable(222) %0, ptr noundef nonnull align 4 dereferenceable(4) %1) unnamed_addr #1 align 2 personality ptr @__gxx_personality_v0 {
  %3 = alloca ptr, align 8
  %4 = alloca ptr, align 8
  %5 = alloca ptr, align 8
  %6 = alloca i32, align 4
  store ptr %0, ptr %3, align 8, !tbaa !3
  store ptr %1, ptr %4, align 8, !tbaa !8
  %7 = load ptr, ptr %3, align 8
  %8 = load ptr, ptr %4, align 8, !tbaa !8
  call void @_ZN6icu_778CalendarC2ER10UErrorCode(ptr noundef nonnull align 8 dereferenceable(192) %7, ptr noundef nonnull align 4 dereferenceable(4) %8)
  store ptr getelementptr inbounds inrange(-16, 480) ({ [62 x ptr] }, ptr @_ZTVN6icu_7717GregorianCalendarE, i32 0, i32 0, i32 2), ptr %7, align 8, !tbaa !9
  %9 = getelementptr inbounds nuw %"class.icu_77::GregorianCalendar", ptr %7, i32 0, i32 1
  store double 0xC2A63A0D36A80000, ptr %9, align 8, !tbaa !11
  %10 = getelementptr inbounds nuw %"class.icu_77::GregorianCalendar", ptr %7, i32 0, i32 2
  store i32 2299161, ptr %10, align 8, !tbaa !23
  %11 = getelementptr inbounds nuw %"class.icu_77::GregorianCalendar", ptr %7, i32 0, i32 4
  %12 = getelementptr inbounds nuw %"class.icu_77::GregorianCalendar", ptr %7, i32 0, i32 1
  %13 = load double, ptr %12, align 8, !tbaa !11
  store double %13, ptr %11, align 8, !tbaa !24
  %14 = getelementptr inbounds nuw %"class.icu_77::GregorianCalendar", ptr %7, i32 0, i32 5
  store i32 1582, ptr %14, align 8, !tbaa !25
  %15 = getelementptr inbounds nuw %"class.icu_77::GregorianCalendar", ptr %7, i32 0, i32 6
  store i8 1, ptr %15, align 4, !tbaa !26
  %16 = getelementptr inbounds nuw %"class.icu_77::GregorianCalendar", ptr %7, i32 0, i32 7
  store i8 0, ptr %16, align 1, !tbaa !27
  %17 = invoke noundef double @_ZN6icu_778Calendar6getNowEv()
          to label %18 unwind label %21

18:                                               ; preds = %2
  %19 = load ptr, ptr %4, align 8, !tbaa !8
  invoke void @_ZN6icu_778Calendar15setTimeInMillisEdR10UErrorCode(ptr noundef nonnull align 8 dereferenceable(192) %7, double noundef %17, ptr noundef nonnull align 4 dereferenceable(4) %19)
          to label %20 unwind label %21

20:                                               ; preds = %18
  ret void

21:                                               ; preds = %18, %2
  %22 = landingpad { ptr, i32 }
          cleanup
  %23 = extractvalue { ptr, i32 } %22, 0
  store ptr %23, ptr %5, align 8
  %24 = extractvalue { ptr, i32 } %22, 1
  store i32 %24, ptr %6, align 4
  call void @_ZN6icu_778CalendarD2Ev(ptr noundef nonnull align 8 dereferenceable(192) %7) #10
  br label %25

25:                                               ; preds = %21
  %26 = load ptr, ptr %5, align 8
  %27 = load i32, ptr %6, align 4
  %28 = insertvalue { ptr, i32 } poison, ptr %26, 0
  %29 = insertvalue { ptr, i32 } %28, i32 %27, 1
  resume { ptr, i32 } %29
}